; Function Attrs: mustprogress uwtable
define internal fastcc void @"_ZSt21__inplace_stable_sortISt16reverse_iteratorIN9__gnu_cxx17__normal_iteratorIPNSt7__cxx1112basic_stringIcSt11char_traitsIcESaIcEEESt6vectorIS8_SaIS8_EEEEENS1_5__ops15_Iter_comp_iterIZN12_GLOBAL__N_128RoundRobinAllocationStrategy11InitialSortERKSt3mapIS8_N24cmCTestResourceAllocator8ResourceESt4lessIS8_ESaISt4pairIKS8_SL_EEERSC_E3$_0EEEvT_SY_T0_"(ptr noundef nonnull readonly captures(none) %0, ptr noundef nonnull readonly captures(none) %1, ptr %2) unnamed_addr #1 {
  %4 = alloca %"class.std::reverse_iterator.22", align 8
  %5 = alloca %"class.std::reverse_iterator.22", align 8
  %6 = alloca %"class.std::reverse_iterator.22", align 8
  %7 = alloca %"class.std::reverse_iterator.22", align 8
  %8 = alloca %"class.std::reverse_iterator.22", align 8
  %9 = alloca %"class.std::reverse_iterator.22", align 8
  %10 = alloca %"class.std::reverse_iterator.22", align 8
  %11 = alloca %"class.std::reverse_iterator.22", align 8
  %12 = alloca %"class.std::reverse_iterator.22", align 8
  %.sroa.0.0.copyload.i.i = load ptr, ptr %0, align 8
  %.sroa.0.0.copyload.i2.i = load ptr, ptr %1, align 8
  %13 = ptrtoint ptr %.sroa.0.0.copyload.i.i to i64
  %14 = ptrtoint ptr %.sroa.0.0.copyload.i2.i to i64
  %15 = sub i64 %13, %14
  %16 = ashr exact i64 %15, 5
  %17 = icmp slt i64 %16, 15
  br i1 %17, label %18, label %19

18:                                               ; preds = %3
  store i64 %13, ptr %4, align 8, !tbaa !37
  store i64 %14, ptr %5, align 8, !tbaa !37
  call fastcc void @"_ZSt16__insertion_sortISt16reverse_iteratorIN9__gnu_cxx17__normal_iteratorIPNSt7__cxx1112basic_stringIcSt11char_traitsIcESaIcEEESt6vectorIS8_SaIS8_EEEEENS1_5__ops15_Iter_comp_iterIZN12_GLOBAL__N_128RoundRobinAllocationStrategy11InitialSortERKSt3mapIS8_N24cmCTestResourceAllocator8ResourceESt4lessIS8_ESaISt4pairIKS8_SL_EEERSC_E3$_0EEEvT_SY_T0_"(ptr noundef %4, ptr noundef %5, ptr %2)
  br label %31

19:                                               ; preds = %3
  %20 = lshr i64 %16, 1
  %21 = sub nsw i64 0, %20
  %22 = getelementptr inbounds %"class.std::__cxx11::basic_string", ptr %.sroa.0.0.copyload.i.i, i64 %21
  store i64 %13, ptr %6, align 8, !tbaa !37
  %23 = ptrtoint ptr %22 to i64
  store i64 %23, ptr %7, align 8, !tbaa !37
  call fastcc void @"_ZSt21__inplace_stable_sortISt16reverse_iteratorIN9__gnu_cxx17__normal_iteratorIPNSt7__cxx1112basic_stringIcSt11char_traitsIcESaIcEEESt6vectorIS8_SaIS8_EEEEENS1_5__ops15_Iter_comp_iterIZN12_GLOBAL__N_128RoundRobinAllocationStrategy11InitialSortERKSt3mapIS8_N24cmCTestResourceAllocator8ResourceESt4lessIS8_ESaISt4pairIKS8_SL_EEERSC_E3$_0EEEvT_SY_T0_"(ptr noundef %6, ptr noundef %7, ptr %2)
  store i64 %23, ptr %8, align 8, !tbaa !37
  %24 = load i64, ptr %1, align 8, !tbaa !37
  store i64 %24, ptr %9, align 8, !tbaa !37
  call fastcc void @"_ZSt21__inplace_stable_sortISt16reverse_iteratorIN9__gnu_cxx17__normal_iteratorIPNSt7__cxx1112basic_stringIcSt11char_traitsIcESaIcEEESt6vectorIS8_SaIS8_EEEEENS1_5__ops15_Iter_comp_iterIZN12_GLOBAL__N_128RoundRobinAllocationStrategy11InitialSortERKSt3mapIS8_N24cmCTestResourceAllocator8ResourceESt4lessIS8_ESaISt4pairIKS8_SL_EEERSC_E3$_0EEEvT_SY_T0_"(ptr noundef %8, ptr noundef %9, ptr %2)
  %25 = load i64, ptr %0, align 8, !tbaa !37
  store i64 %25, ptr %10, align 8, !tbaa !37
  store i64 %23, ptr %11, align 8, !tbaa !37
  %26 = load i64, ptr %1, align 8, !tbaa !37
  store i64 %26, ptr %12, align 8, !tbaa !37
  %27 = sub i64 %25, %23
  %28 = ashr exact i64 %27, 5
  %29 = sub i64 %23, %26
  %30 = ashr exact i64 %29, 5
  call fastcc void @"_ZSt22__merge_without_bufferISt16reverse_iteratorIN9__gnu_cxx17__normal_iteratorIPNSt7__cxx1112basic_stringIcSt11char_traitsIcESaIcEEESt6vectorIS8_SaIS8_EEEEElNS1_5__ops15_Iter_comp_iterIZN12_GLOBAL__N_128RoundRobinAllocationStrategy11InitialSortERKSt3mapIS8_N24cmCTestResourceAllocator8ResourceESt4lessIS8_ESaISt4pairIKS8_SL_EEERSC_E3$_0EEEvT_SY_SY_T0_SZ_T1_"(ptr noundef %10, ptr noundef %11, ptr noundef %12, i64 noundef %28, i64 noundef %30, ptr %2)
  br label %31

31:                                               ; preds = %19, %18
  ret void
}